; Function Attrs: nounwind uwtable
define <2 x float> @b2Body_GetLocalPoint(i64 %0, <2 x float> %1) local_unnamed_addr #8 {
  %.sroa.2.0.extract.shift = lshr i64 %0, 32
  %3 = trunc nuw i64 %.sroa.2.0.extract.shift to i32
  %4 = and i32 %3, 65535
  %5 = tail call ptr @b2GetWorld(i32 noundef %4) #10
  %6 = getelementptr inbounds nuw i8, ptr %5, i64 1032
  %.val.i = load ptr, ptr %6, align 8, !tbaa !10
  %7 = shl i64 %0, 32
  %sext.i = add i64 %7, -4294967296
  %8 = ashr exact i64 %sext.i, 25
  %9 = getelementptr inbounds i8, ptr %.val.i, i64 %8
  %10 = getelementptr inbounds nuw i8, ptr %5, i64 1072
  %11 = getelementptr inbounds nuw i8, ptr %9, i64 40
  %12 = load i32, ptr %11, align 8, !tbaa !19
  %.val.i6 = load ptr, ptr %10, align 8, !tbaa !24
  %13 = sext i32 %12 to i64
  %14 = getelementptr inbounds %struct.b2SolverSet, ptr %.val.i6, i64 %13
  %15 = getelementptr inbounds nuw i8, ptr %9, i64 44
  %16 = load i32, ptr %15, align 4, !tbaa !27
  %.val5.i = load ptr, ptr %14, align 8, !tbaa !14
  %17 = sext i32 %16 to i64
  %18 = getelementptr inbounds %struct.b2BodySim, ptr %.val5.i, i64 %17
  %.sroa.0.0.copyload.i = load <2 x float>, ptr %18, align 4
  %.sroa.2.0..sroa_idx.i = getelementptr inbounds nuw i8, ptr %18, i64 8
  %.sroa.2.0.copyload.i = load <2 x float>, ptr %.sroa.2.0..sroa_idx.i, align 4
  %19 = fsub <2 x float> %1, %.sroa.0.0.copyload.i
  %20 = extractelement <2 x float> %19, i64 0
  %21 = fsub <2 x float> %1, %.sroa.0.0.copyload.i
  %22 = extractelement <2 x float> %21, i64 1
  %.sroa.3.8.vec.extract.i = extractelement <2 x float> %.sroa.2.0.copyload.i, i64 0
  %23 = fmul <2 x float> %.sroa.2.0.copyload.i, %19
  %24 = extractelement <2 x float> %23, i64 0
  %.sroa.3.12.vec.extract.i = extractelement <2 x float> %.sroa.2.0.copyload.i, i64 1
  %25 = fmul float %.sroa.3.12.vec.extract.i, %22
  %26 = fadd float %24, %25
  %.sroa.09.0.vec.insert.i = insertelement <2 x float> poison, float %26, i64 0
  %27 = fmul float %.sroa.3.8.vec.extract.i, %22
  %28 = fmul float %.sroa.3.12.vec.extract.i, %20
  %29 = fsub float %27, %28
  %.sroa.09.4.vec.insert.i = insertelement <2 x float> %.sroa.09.0.vec.insert.i, float %29, i64 1
  ret <2 x float> %.sroa.09.4.vec.insert.i
}